; Function Attrs: mustprogress sspstrong uwtable
define internal noundef i32 @_ZL26__itt_event_start_init_3_0i(i32 noundef %0) #0 {
  %2 = load volatile i64, ptr getelementptr inbounds nuw (i8, ptr @__itt__ittapi_global, i64 32), align 8, !tbaa !3
  %3 = icmp eq i64 %2, 0
  %4 = load ptr, ptr getelementptr inbounds nuw (i8, ptr @__itt__ittapi_global, i64 136), align 8
  %5 = icmp eq ptr %4, null
  %or.cond = select i1 %3, i1 %5, i1 false
  br i1 %or.cond, label %6, label %7

6:                                                ; preds = %1
  tail call void @ITT_DoOneTimeInitialization()
  br label %7

7:                                                ; preds = %6, %1
  %8 = load ptr, ptr @__itt_event_start_ptr__3_0, align 8, !tbaa !21
  %9 = icmp ne ptr %8, null
  %10 = icmp ne ptr %8, @_ZL26__itt_event_start_init_3_0i
  %or.cond3 = and i1 %9, %10
  br i1 %or.cond3, label %11, label %13

11:                                               ; preds = %7
  %12 = tail call i32 %8(i32 noundef %0)
  br label %13

13:                                               ; preds = %7, %11
  %.0 = phi i32 [ %12, %11 ], [ 0, %7 ]
  ret i32 %.0
}